; ModuleID = '2/804.c'
source_filename = "2/804.c"
target datalayout = "e-m:e-p270:32:32-p271:32:32-p272:64:64-i64:64-f80:128-n8:16:32:64-S128"
target triple = "x86_64-pc-linux-gnu"

@.str = private unnamed_addr constant [3 x i8] c"%d\00", align 1
@.str.1 = private unnamed_addr constant [5 x i8] c"%d%s\00", align 1
@.str.2 = private unnamed_addr constant [4 x i8] c"%c\0A\00", align 1
@.str.3 = private unnamed_addr constant [4 x i8] c"%d\0A\00", align 1

; Function Attrs: noinline nounwind uwtable
define dso_local void @main() #0 {
  %1 = alloca i32, align 4
  %2 = alloca i32, align 4
  %3 = alloca i32, align 4
  %4 = alloca i32, align 4
  %5 = alloca [100 x i32], align 16
  %6 = alloca [26 x i32], align 16
  %7 = alloca i32, align 4
  %8 = alloca i32, align 4
  %9 = alloca [100 x [50 x i8]], align 16
  %10 = alloca i8, align 1
  store i32 0, i32* %2, align 4
  br label %11

11:                                               ; preds = %18, %0
  %12 = load i32, i32* %2, align 4
  %13 = icmp sle i32 %12, 25
  br i1 %13, label %14, label %21

14:                                               ; preds = %11
  %15 = load i32, i32* %2, align 4
  %16 = sext i32 %15 to i64
  %17 = getelementptr inbounds [26 x i32], [26 x i32]* %6, i64 0, i64 %16
  store i32 0, i32* %17, align 4
  br label %18

18:                                               ; preds = %14
  %19 = load i32, i32* %2, align 4
  %20 = add nsw i32 %19, 1
  store i32 %20, i32* %2, align 4
  br label %11

21:                                               ; preds = %11
  %22 = call i32 (i8*, ...) @__isoc99_scanf(i8* getelementptr inbounds ([3 x i8], [3 x i8]* @.str, i64 0, i64 0), i32* %1)
  store i32 0, i32* %2, align 4
  br label %23

23:                                               ; preds = %70, %21
  %24 = load i32, i32* %2, align 4
  %25 = load i32, i32* %1, align 4
  %26 = sub nsw i32 %25, 1
  %27 = icmp sle i32 %24, %26
  br i1 %27, label %28, label %73

28:                                               ; preds = %23
  %29 = load i32, i32* %2, align 4
  %30 = sext i32 %29 to i64
  %31 = getelementptr inbounds [100 x i32], [100 x i32]* %5, i64 0, i64 %30
  %32 = load i32, i32* %2, align 4
  %33 = sext i32 %32 to i64
  %34 = getelementptr inbounds [100 x [50 x i8]], [100 x [50 x i8]]* %9, i64 0, i64 %33
  %35 = getelementptr inbounds [50 x i8], [50 x i8]* %34, i64 0, i64 0
  %36 = call i32 (i8*, ...) @__isoc99_scanf(i8* getelementptr inbounds ([5 x i8], [5 x i8]* @.str.1, i64 0, i64 0), i32* %31, i8* %35)
  %37 = load i32, i32* %2, align 4
  %38 = sext i32 %37 to i64
  %39 = getelementptr inbounds [100 x [50 x i8]], [100 x [50 x i8]]* %9, i64 0, i64 %38
  %40 = getelementptr inbounds [50 x i8], [50 x i8]* %39, i64 0, i64 0
  %41 = call i64 @strlen(i8* %40) #3
  %42 = trunc i64 %41 to i32
  store i32 %42, i32* %4, align 4
  store i32 0, i32* %3, align 4
  br label %43

43:                                               ; preds = %66, %28
  %44 = load i32, i32* %3, align 4
  %45 = load i32, i32* %4, align 4
  %46 = sub nsw i32 %45, 1
  %47 = icmp sle i32 %44, %46
  br i1 %47, label %48, label %69

48:                                               ; preds = %43
  %49 = load i32, i32* %2, align 4
  %50 = sext i32 %49 to i64
  %51 = getelementptr inbounds [100 x [50 x i8]], [100 x [50 x i8]]* %9, i64 0, i64 %50
  %52 = load i32, i32* %3, align 4
  %53 = sext i32 %52 to i64
  %54 = getelementptr inbounds [50 x i8], [50 x i8]* %51, i64 0, i64 %53
  %55 = load i8, i8* %54, align 1
  %56 = sext i8 %55 to i32
  %57 = sub nsw i32 %56, 65
  store i32 %57, i32* %7, align 4
  %58 = load i32, i32* %7, align 4
  %59 = sext i32 %58 to i64
  %60 = getelementptr inbounds [26 x i32], [26 x i32]* %6, i64 0, i64 %59
  %61 = load i32, i32* %60, align 4
  %62 = add nsw i32 %61, 1
  %63 = load i32, i32* %7, align 4
  %64 = sext i32 %63 to i64
  %65 = getelementptr inbounds [26 x i32], [26 x i32]* %6, i64 0, i64 %64
  store i32 %62, i32* %65, align 4
  br label %66

66:                                               ; preds = %48
  %67 = load i32, i32* %3, align 4
  %68 = add nsw i32 %67, 1
  store i32 %68, i32* %3, align 4
  br label %43

69:                                               ; preds = %43
  br label %70

70:                                               ; preds = %69
  %71 = load i32, i32* %2, align 4
  %72 = add nsw i32 %71, 1
  store i32 %72, i32* %2, align 4
  br label %23

73:                                               ; preds = %23
  %74 = getelementptr inbounds [26 x i32], [26 x i32]* %6, i64 0, i64 0
  %75 = load i32, i32* %74, align 16
  store i32 %75, i32* %8, align 4
  store i32 0, i32* %3, align 4
  store i32 0, i32* %2, align 4
  br label %76

76:                                               ; preds = %93, %73
  %77 = load i32, i32* %2, align 4
  %78 = icmp sle i32 %77, 25
  br i1 %78, label %79, label %96

79:                                               ; preds = %76
  %80 = load i32, i32* %2, align 4
  %81 = sext i32 %80 to i64
  %82 = getelementptr inbounds [26 x i32], [26 x i32]* %6, i64 0, i64 %81
  %83 = load i32, i32* %82, align 4
  %84 = load i32, i32* %8, align 4
  %85 = icmp sgt i32 %83, %84
  br i1 %85, label %86, label %92

86:                                               ; preds = %79
  %87 = load i32, i32* %2, align 4
  %88 = sext i32 %87 to i64
  %89 = getelementptr inbounds [26 x i32], [26 x i32]* %6, i64 0, i64 %88
  %90 = load i32, i32* %89, align 4
  store i32 %90, i32* %8, align 4
  %91 = load i32, i32* %2, align 4
  store i32 %91, i32* %3, align 4
  br label %92

92:                                               ; preds = %86, %79
  br label %93

93:                                               ; preds = %92
  %94 = load i32, i32* %2, align 4
  %95 = add nsw i32 %94, 1
  store i32 %95, i32* %2, align 4
  br label %76

96:                                               ; preds = %76
  %97 = load i32, i32* %3, align 4
  %98 = add nsw i32 %97, 65
  %99 = trunc i32 %98 to i8
  store i8 %99, i8* %10, align 1
  %100 = load i8, i8* %10, align 1
  %101 = sext i8 %100 to i32
  %102 = call i32 (i8*, ...) @printf(i8* getelementptr inbounds ([4 x i8], [4 x i8]* @.str.2, i64 0, i64 0), i32 %101)
  %103 = load i32, i32* %8, align 4
  %104 = call i32 (i8*, ...) @printf(i8* getelementptr inbounds ([4 x i8], [4 x i8]* @.str.3, i64 0, i64 0), i32 %103)
  store i32 0, i32* %2, align 4
  br label %105

105:                                              ; preds = %145, %96
  %106 = load i32, i32* %2, align 4
  %107 = load i32, i32* %1, align 4
  %108 = sub nsw i32 %107, 1
  %109 = icmp sle i32 %106, %108
  br i1 %109, label %110, label %148

110:                                              ; preds = %105
  %111 = load i32, i32* %2, align 4
  %112 = sext i32 %111 to i64
  %113 = getelementptr inbounds [100 x [50 x i8]], [100 x [50 x i8]]* %9, i64 0, i64 %112
  %114 = getelementptr inbounds [50 x i8], [50 x i8]* %113, i64 0, i64 0
  %115 = call i64 @strlen(i8* %114) #3
  %116 = trunc i64 %115 to i32
  store i32 %116, i32* %4, align 4
  store i32 0, i32* %3, align 4
  br label %117

117:                                              ; preds = %141, %110
  %118 = load i32, i32* %3, align 4
  %119 = load i32, i32* %4, align 4
  %120 = sub nsw i32 %119, 1
  %121 = icmp sle i32 %118, %120
  br i1 %121, label %122, label %144

122:                                              ; preds = %117
  %123 = load i32, i32* %2, align 4
  %124 = sext i32 %123 to i64
  %125 = getelementptr inbounds [100 x [50 x i8]], [100 x [50 x i8]]* %9, i64 0, i64 %124
  %126 = load i32, i32* %3, align 4
  %127 = sext i32 %126 to i64
  %128 = getelementptr inbounds [50 x i8], [50 x i8]* %125, i64 0, i64 %127
  %129 = load i8, i8* %128, align 1
  %130 = sext i8 %129 to i32
  %131 = load i8, i8* %10, align 1
  %132 = sext i8 %131 to i32
  %133 = icmp eq i32 %130, %132
  br i1 %133, label %134, label %140

134:                                              ; preds = %122
  %135 = load i32, i32* %2, align 4
  %136 = sext i32 %135 to i64
  %137 = getelementptr inbounds [100 x i32], [100 x i32]* %5, i64 0, i64 %136
  %138 = load i32, i32* %137, align 4
  %139 = call i32 (i8*, ...) @printf(i8* getelementptr inbounds ([4 x i8], [4 x i8]* @.str.3, i64 0, i64 0), i32 %138)
  br label %140

140:                                              ; preds = %134, %122
  br label %141

141:                                              ; preds = %140
  %142 = load i32, i32* %3, align 4
  %143 = add nsw i32 %142, 1
  store i32 %143, i32* %3, align 4
  br label %117

144:                                              ; preds = %117
  br label %145

145:                                              ; preds = %144
  %146 = load i32, i32* %2, align 4
  %147 = add nsw i32 %146, 1
  store i32 %147, i32* %2, align 4
  br label %105

148:                                              ; preds = %105
  ret void
}

declare dso_local i32 @__isoc99_scanf(i8*, ...) #1

; Function Attrs: nounwind readonly
declare dso_local i64 @strlen(i8*) #2

declare dso_local i32 @printf(i8*, ...) #1


!llvm.module.flags = !{!0}
!llvm.ident = !{!1}

!0 = !{i32 1, !"wchar_size", i32 4}
!1 = !{!"clang version 10.0.0-4ubuntu1 "}
